; Function Attrs: mustprogress uwtable
define void @_ZN5osgeo4proj8metadata8CitationC2ERKS2_(ptr noundef nonnull align 8 dereferenceable(24) %0, ptr nocapture noundef nonnull readonly align 8 dereferenceable(24) %1) unnamed_addr #0 align 2 personality ptr @__gxx_personality_v0 {
  tail call void @_ZN5osgeo4proj4util10BaseObjectC2Ev(ptr noundef nonnull align 8 dereferenceable(16) %0)
  store ptr getelementptr inbounds inrange(-16, 16) ({ [4 x ptr] }, ptr @_ZTVN5osgeo4proj8metadata8CitationE, i64 0, i32 0, i64 2), ptr %0, align 8
  %3 = getelementptr inbounds i8, ptr %1, i64 16
  %4 = load ptr, ptr %3, align 8
  tail call void @llvm.experimental.noalias.scope.decl(metadata !10)
  %5 = invoke noalias noundef nonnull dereferenceable(40) ptr @_Znwm(i64 noundef 40) #27
          to label %.noexc unwind label %14

.noexc:                                           ; preds = %2
  %6 = load i8, ptr %4, align 8, !noalias !10
  %7 = and i8 %6, 1
  store i8 %7, ptr %5, align 8, !noalias !10
  %8 = getelementptr inbounds i8, ptr %5, i64 8
  %9 = getelementptr inbounds i8, ptr %4, i64 8
  invoke void @_ZNSt7__cxx1112basic_stringIcSt11char_traitsIcESaIcEEC1ERKS4_(ptr noundef nonnull align 8 dereferenceable(32) %8, ptr noundef nonnull align 8 dereferenceable(32) %9)
          to label %12 unwind label %10, !noalias !10

10:                                               ; preds = %.noexc
  %11 = landingpad { ptr, i32 }
          cleanup
  tail call void @_ZdlPv(ptr noundef nonnull %5) #29, !noalias !10
  br label %.body

12:                                               ; preds = %.noexc
  %13 = getelementptr inbounds i8, ptr %0, i64 16
  store ptr %5, ptr %13, align 8, !alias.scope !10
  ret void

14:                                               ; preds = %2
  %15 = landingpad { ptr, i32 }
          cleanup
  br label %.body

.body:                                            ; preds = %10, %14
  %eh.lpad-body = phi { ptr, i32 } [ %15, %14 ], [ %11, %10 ]
  tail call void @_ZN5osgeo4proj4util10BaseObjectD2Ev(ptr noundef nonnull align 8 dereferenceable(16) %0) #28
  resume { ptr, i32 } %eh.lpad-body
}